; ModuleID = '20/30.c'
source_filename = "20/30.c"
target datalayout = "e-m:e-p270:32:32-p271:32:32-p272:64:64-i64:64-f80:128-n8:16:32:64-S128"
target triple = "x86_64-pc-linux-gnu"

@.str = private unnamed_addr constant [6 x i8] c"%s %s\00", align 1
@.str.1 = private unnamed_addr constant [3 x i8] c"%c\00", align 1
@.str.2 = private unnamed_addr constant [3 x i8] c"%s\00", align 1
@.str.3 = private unnamed_addr constant [2 x i8] c"\0A\00", align 1

; Function Attrs: noinline nounwind uwtable
define dso_local i32 @main() #0 {
  %1 = alloca i32, align 4
  %2 = alloca i32, align 4
  %3 = alloca i32, align 4
  %4 = alloca i32, align 4
  %5 = alloca [10 x i8], align 1
  %6 = alloca [4 x i8], align 1
  store i32 0, i32* %1, align 4
  br label %7

7:                                                ; preds = %74, %0
  %8 = getelementptr inbounds [10 x i8], [10 x i8]* %5, i64 0, i64 0
  %9 = getelementptr inbounds [4 x i8], [4 x i8]* %6, i64 0, i64 0
  %10 = call i32 (i8*, ...) @__isoc99_scanf(i8* getelementptr inbounds ([6 x i8], [6 x i8]* @.str, i64 0, i64 0), i8* %8, i8* %9)
  %11 = icmp ne i32 %10, -1
  br i1 %11, label %12, label %76

12:                                               ; preds = %7
  store i32 0, i32* %4, align 4
  store i32 0, i32* %3, align 4
  store i32 0, i32* %2, align 4
  br label %13

13:                                               ; preds = %36, %12
  %14 = load i32, i32* %2, align 4
  %15 = sext i32 %14 to i64
  %16 = getelementptr inbounds [10 x i8], [10 x i8]* %5, i64 0, i64 %15
  %17 = load i8, i8* %16, align 1
  %18 = sext i8 %17 to i32
  %19 = icmp ne i32 %18, 0
  br i1 %19, label %20, label %39

20:                                               ; preds = %13
  %21 = load i32, i32* %2, align 4
  %22 = sext i32 %21 to i64
  %23 = getelementptr inbounds [10 x i8], [10 x i8]* %5, i64 0, i64 %22
  %24 = load i8, i8* %23, align 1
  %25 = sext i8 %24 to i32
  %26 = load i32, i32* %3, align 4
  %27 = icmp sgt i32 %25, %26
  br i1 %27, label %28, label %35

28:                                               ; preds = %20
  %29 = load i32, i32* %2, align 4
  %30 = sext i32 %29 to i64
  %31 = getelementptr inbounds [10 x i8], [10 x i8]* %5, i64 0, i64 %30
  %32 = load i8, i8* %31, align 1
  %33 = sext i8 %32 to i32
  store i32 %33, i32* %3, align 4
  %34 = load i32, i32* %2, align 4
  store i32 %34, i32* %4, align 4
  br label %35

35:                                               ; preds = %28, %20
  br label %36

36:                                               ; preds = %35
  %37 = load i32, i32* %2, align 4
  %38 = add nsw i32 %37, 1
  store i32 %38, i32* %2, align 4
  br label %13

39:                                               ; preds = %13
  store i32 0, i32* %2, align 4
  br label %40

40:                                               ; preds = %51, %39
  %41 = load i32, i32* %2, align 4
  %42 = load i32, i32* %4, align 4
  %43 = icmp sle i32 %41, %42
  br i1 %43, label %44, label %54

44:                                               ; preds = %40
  %45 = load i32, i32* %2, align 4
  %46 = sext i32 %45 to i64
  %47 = getelementptr inbounds [10 x i8], [10 x i8]* %5, i64 0, i64 %46
  %48 = load i8, i8* %47, align 1
  %49 = sext i8 %48 to i32
  %50 = call i32 (i8*, ...) @printf(i8* getelementptr inbounds ([3 x i8], [3 x i8]* @.str.1, i64 0, i64 0), i32 %49)
  br label %51

51:                                               ; preds = %44
  %52 = load i32, i32* %2, align 4
  %53 = add nsw i32 %52, 1
  store i32 %53, i32* %2, align 4
  br label %40

54:                                               ; preds = %40
  %55 = getelementptr inbounds [4 x i8], [4 x i8]* %6, i64 0, i64 0
  %56 = call i32 (i8*, ...) @printf(i8* getelementptr inbounds ([3 x i8], [3 x i8]* @.str.2, i64 0, i64 0), i8* %55)
  br label %57

57:                                               ; preds = %71, %54
  %58 = load i32, i32* %2, align 4
  %59 = sext i32 %58 to i64
  %60 = getelementptr inbounds [10 x i8], [10 x i8]* %5, i64 0, i64 %59
  %61 = load i8, i8* %60, align 1
  %62 = sext i8 %61 to i32
  %63 = icmp ne i32 %62, 0
  br i1 %63, label %64, label %74

64:                                               ; preds = %57
  %65 = load i32, i32* %2, align 4
  %66 = sext i32 %65 to i64
  %67 = getelementptr inbounds [10 x i8], [10 x i8]* %5, i64 0, i64 %66
  %68 = load i8, i8* %67, align 1
  %69 = sext i8 %68 to i32
  %70 = call i32 (i8*, ...) @printf(i8* getelementptr inbounds ([3 x i8], [3 x i8]* @.str.1, i64 0, i64 0), i32 %69)
  br label %71

71:                                               ; preds = %64
  %72 = load i32, i32* %2, align 4
  %73 = add nsw i32 %72, 1
  store i32 %73, i32* %2, align 4
  br label %57

74:                                               ; preds = %57
  %75 = call i32 (i8*, ...) @printf(i8* getelementptr inbounds ([2 x i8], [2 x i8]* @.str.3, i64 0, i64 0))
  br label %7

76:                                               ; preds = %7
  ret i32 0
}

declare dso_local i32 @__isoc99_scanf(i8*, ...) #1

declare dso_local i32 @printf(i8*, ...) #1


!llvm.module.flags = !{!0}
!llvm.ident = !{!1}

!0 = !{i32 1, !"wchar_size", i32 4}
!1 = !{!"clang version 10.0.0-4ubuntu1 "}
